; Function Attrs: nofree nounwind uwtable
define internal fastcc noalias noundef ptr @Abc_FileRead(ptr noundef %0) unnamed_addr #2 {
  %2 = tail call noalias ptr @fopen(ptr noundef %0, ptr noundef nonnull @.str.2)
  %3 = icmp eq ptr %2, null
  br i1 %3, label %4, label %6

4:                                                ; preds = %1
  %5 = tail call i32 (ptr, ...) @printf(ptr noundef nonnull dereferenceable(1) @.str.3, ptr noundef %0)
  br label %20

6:                                                ; preds = %1
  %7 = tail call i32 @fseek(ptr noundef nonnull %2, i64 noundef 0, i32 noundef 2)
  %8 = tail call i64 @ftell(ptr noundef nonnull %2)
  tail call void @rewind(ptr noundef nonnull %2)
  %9 = shl i64 %8, 32
  %sext = add i64 %9, 12884901888
  %10 = ashr exact i64 %sext, 32
  %11 = tail call noalias ptr @malloc(i64 noundef %10) #8
  %12 = ashr exact i64 %9, 32
  %13 = tail call i64 @fread(ptr noundef %11, i64 noundef %12, i64 noundef 1, ptr noundef nonnull %2)
  %14 = getelementptr inbounds i8, ptr %11, i64 %12
  store i8 10, ptr %14, align 1, !tbaa !12
  %sext20 = add i64 %9, 4294967296
  %15 = ashr exact i64 %sext20, 32
  %16 = getelementptr inbounds i8, ptr %11, i64 %15
  store i8 10, ptr %16, align 1, !tbaa !12
  %sext21 = add i64 %9, 8589934592
  %17 = ashr exact i64 %sext21, 32
  %18 = getelementptr inbounds i8, ptr %11, i64 %17
  store i8 0, ptr %18, align 1, !tbaa !12
  %19 = tail call i32 @fclose(ptr noundef nonnull %2)
  br label %20

20:                                               ; preds = %6, %4
  %.0 = phi ptr [ null, %4 ], [ %11, %6 ]
  ret ptr %.0
}